; Function Attrs: mustprogress uwtable
define void @_ZN6icu_7511TailoredSet3addEi(ptr noundef nonnull align 8 dereferenceable(100) %this, i32 noundef %c) local_unnamed_addr #0 align 2 personality ptr @__gxx_personality_v0 {
entry:
  %s = alloca %"class.icu_75::UnicodeString", align 8
  %fUnion.i = getelementptr inbounds i8, ptr %this, i64 32
  %0 = load i16, ptr %fUnion.i, align 8
  %cmp.i = icmp ult i16 %0, 32
  %suffix = getelementptr inbounds i8, ptr %this, i64 88
  %1 = load ptr, ptr %suffix, align 8
  %cmp = icmp eq ptr %1, null
  %or.cond = select i1 %cmp.i, i1 %cmp, i1 false
  br i1 %or.cond, label %if.then, label %if.else

if.then:                                          ; preds = %entry
  %tailored = getelementptr inbounds i8, ptr %this, i64 16
  %2 = load ptr, ptr %tailored, align 8
  %call2 = tail call noundef nonnull align 8 dereferenceable(200) ptr @_ZN6icu_7510UnicodeSet3addEi(ptr noundef nonnull align 8 dereferenceable(200) %2, i32 noundef %c)
  br label %if.end14

if.else:                                          ; preds = %entry
  %unreversedPrefix = getelementptr inbounds i8, ptr %this, i64 24
  call void @_ZN6icu_7513UnicodeStringC1ERKS0_(ptr noundef nonnull align 8 dereferenceable(64) %s, ptr noundef nonnull align 8 dereferenceable(64) %unreversedPrefix)
  %call4 = invoke noundef nonnull align 8 dereferenceable(64) ptr @_ZN6icu_7513UnicodeString6appendEi(ptr noundef nonnull align 8 dereferenceable(64) %s, i32 noundef %c)
          to label %invoke.cont unwind label %lpad

invoke.cont:                                      ; preds = %if.else
  %3 = load ptr, ptr %suffix, align 8
  %cmp6.not = icmp eq ptr %3, null
  br i1 %cmp6.not, label %if.end, label %if.then7

if.then7:                                         ; preds = %invoke.cont
  %fUnion.i.i.i = getelementptr inbounds i8, ptr %3, i64 8
  %4 = load i16, ptr %fUnion.i.i.i, align 8
  %cmp.i.i.i = icmp slt i16 %4, 0
  %5 = ashr i16 %4, 5
  %shr.i.i.i = sext i16 %5 to i32
  %fLength.i.i = getelementptr inbounds i8, ptr %3, i64 12
  %6 = load i32, ptr %fLength.i.i, align 4
  %cond.i.i = select i1 %cmp.i.i.i, i32 %6, i32 %shr.i.i.i
  %call2.i2 = invoke noundef nonnull align 8 dereferenceable(64) ptr @_ZN6icu_7513UnicodeString8doAppendERKS0_ii(ptr noundef nonnull align 8 dereferenceable(64) %s, ptr noundef nonnull align 8 dereferenceable(64) %3, i32 noundef 0, i32 noundef %cond.i.i)
          to label %if.end unwind label %lpad

lpad:                                             ; preds = %if.then7, %if.end, %if.else
  %7 = landingpad { ptr, i32 }
          cleanup
  call void @_ZN6icu_7513UnicodeStringD1Ev(ptr noundef nonnull align 8 dereferenceable(64) %s) #9
  resume { ptr, i32 } %7

if.end:                                           ; preds = %if.then7, %invoke.cont
  %tailored11 = getelementptr inbounds i8, ptr %this, i64 16
  %8 = load ptr, ptr %tailored11, align 8
  %call13 = invoke noundef nonnull align 8 dereferenceable(200) ptr @_ZN6icu_7510UnicodeSet3addERKNS_13UnicodeStringE(ptr noundef nonnull align 8 dereferenceable(200) %8, ptr noundef nonnull align 8 dereferenceable(64) %s)
          to label %invoke.cont12 unwind label %lpad

invoke.cont12:                                    ; preds = %if.end
  call void @_ZN6icu_7513UnicodeStringD1Ev(ptr noundef nonnull align 8 dereferenceable(64) %s) #9
  br label %if.end14

if.end14:                                         ; preds = %invoke.cont12, %if.then
  ret void
}